; Function Attrs: mustprogress uwtable
define internal void @"_ZN4LuauL8fnVisitVIRZNS_12_GLOBAL__N_18StateDot13visitChildrenEPKNS_4TypeEiE3$_0KNS_9UnionTypeEEEvRT_PNSt11conditionalIXsr3stdE10is_const_vIT0_EEKvvE4typeE"(ptr noundef nonnull readonly align 8 captures(none) dereferenceable(24) %0, ptr noundef readonly captures(none) %1) #2 {
  %3 = load ptr, ptr %0, align 8, !tbaa !66
  %4 = getelementptr inbounds nuw i8, ptr %3, i64 240
  %5 = getelementptr inbounds nuw i8, ptr %0, i64 8
  %6 = load ptr, ptr %5, align 8, !tbaa !165
  %7 = load i32, ptr %6, align 4, !tbaa !4
  tail call void (ptr, ptr, ...) @_ZN4Luau12formatAppendERNSt7__cxx1112basic_stringIcSt11char_traitsIcESaIcEEEPKcz(ptr noundef nonnull align 8 dereferenceable(32) %4, ptr noundef nonnull @.str.103, i32 noundef %7)
  %8 = load i8, ptr %3, align 8, !tbaa !97, !range !54, !noundef !55
  %9 = trunc nuw i8 %8 to i1
  br i1 %9, label %10, label %14

10:                                               ; preds = %2
  %11 = getelementptr inbounds nuw i8, ptr %0, i64 16
  %12 = load ptr, ptr %11, align 8, !tbaa !166
  %13 = load ptr, ptr %12, align 8, !tbaa !47
  tail call void (ptr, ptr, ...) @_ZN4Luau12formatAppendERNSt7__cxx1112basic_stringIcSt11char_traitsIcESaIcEEEPKcz(ptr noundef nonnull align 8 dereferenceable(32) %4, ptr noundef nonnull @.str.67, ptr noundef %13)
  br label %14

14:                                               ; preds = %10, %2
  %15 = getelementptr inbounds nuw i8, ptr %3, i64 248
  %16 = load i64, ptr %15, align 8, !tbaa !41
  %17 = icmp eq i64 %16, 4611686018427387903
  br i1 %17, label %18, label %_ZN4Luau12_GLOBAL__N_18StateDot15finishNodeLabelEPKNS_4TypeE.exit.i

18:                                               ; preds = %14
  tail call void @_ZSt20__throw_length_errorPKc(ptr noundef nonnull @.str.122) #18
  unreachable

_ZN4Luau12_GLOBAL__N_18StateDot15finishNodeLabelEPKNS_4TypeE.exit.i: ; preds = %14
  %19 = tail call noundef nonnull align 8 dereferenceable(32) ptr @_ZNSt7__cxx1112basic_stringIcSt11char_traitsIcESaIcEE9_M_appendEPKcm(ptr noundef nonnull align 8 dereferenceable(32) %4, ptr noundef nonnull @.str.68, i64 noundef 1)
  tail call void (ptr, ptr, ...) @_ZN4Luau12formatAppendERNSt7__cxx1112basic_stringIcSt11char_traitsIcESaIcEEEPKcz(ptr noundef nonnull align 8 dereferenceable(32) %4, ptr noundef nonnull @.str.69)
  %20 = load ptr, ptr %1, align 8, !tbaa !72
  %21 = getelementptr inbounds nuw i8, ptr %1, i64 8
  %22 = load ptr, ptr %21, align 8, !tbaa !72
  %.not8.i = icmp eq ptr %20, %22
  br i1 %.not8.i, label %"_ZZN4Luau12_GLOBAL__N_18StateDot13visitChildrenEPKNS_4TypeEiENK3$_0clIRKNS_9UnionTypeEEEDaOT_.exit", label %.lr.ph.i

.lr.ph.i:                                         ; preds = %_ZN4Luau12_GLOBAL__N_18StateDot15finishNodeLabelEPKNS_4TypeE.exit.i, %.lr.ph.i
  %.sroa.05.09.i = phi ptr [ %26, %.lr.ph.i ], [ %20, %_ZN4Luau12_GLOBAL__N_18StateDot15finishNodeLabelEPKNS_4TypeE.exit.i ]
  %23 = load ptr, ptr %.sroa.05.09.i, align 8, !tbaa !47
  %24 = load ptr, ptr %5, align 8, !tbaa !165
  %25 = load i32, ptr %24, align 4, !tbaa !4
  tail call fastcc void @_ZN4Luau12_GLOBAL__N_18StateDot10visitChildEPKNS_4TypeEiPKc(ptr noundef nonnull align 8 dereferenceable(272) %3, ptr noundef %23, i32 noundef %25, ptr noundef null)
  %26 = getelementptr inbounds nuw i8, ptr %.sroa.05.09.i, i64 8
  %.not.i = icmp eq ptr %26, %22
  br i1 %.not.i, label %"_ZZN4Luau12_GLOBAL__N_18StateDot13visitChildrenEPKNS_4TypeEiENK3$_0clIRKNS_9UnionTypeEEEDaOT_.exit", label %.lr.ph.i

"_ZZN4Luau12_GLOBAL__N_18StateDot13visitChildrenEPKNS_4TypeEiENK3$_0clIRKNS_9UnionTypeEEEDaOT_.exit": ; preds = %.lr.ph.i, %_ZN4Luau12_GLOBAL__N_18StateDot15finishNodeLabelEPKNS_4TypeE.exit.i
  ret void
}